; Function Attrs: nounwind uwtable
define dso_local i64 @xid8in(ptr noundef readonly captures(none) %0) local_unnamed_addr #0 {
  %2 = getelementptr inbounds nuw i8, ptr %0, i64 32
  %3 = load i64, ptr %2, align 8
  %4 = inttoptr i64 %3 to ptr
  %5 = getelementptr inbounds nuw i8, ptr %0, i64 8
  %6 = load ptr, ptr %5, align 8
  %7 = tail call i64 @uint64in_subr(ptr noundef %4, ptr noundef null, ptr noundef nonnull @.str.2, ptr noundef %6) #7
  ret i64 %7
}